; Function Attrs: mustprogress nofree norecurse nosync nounwind willreturn memory(argmem: read) uwtable
define dso_local noundef zeroext i1 @_ZN5cmsys17SystemToolsStatic14FileIsFullPathEPKcm(ptr noundef readonly captures(none) %0, i64 noundef %1) local_unnamed_addr #16 align 2 {
  %3 = icmp eq i64 %1, 0
  br i1 %3, label %6, label %4

4:                                                ; preds = %2
  %5 = load i8, ptr %0, align 1, !tbaa !20
  %switch.selectcmp.case1 = icmp eq i8 %5, 126
  %switch.selectcmp.case2 = icmp eq i8 %5, 47
  %switch.selectcmp = or i1 %switch.selectcmp.case1, %switch.selectcmp.case2
  br label %6

6:                                                ; preds = %4, %2
  %.0 = phi i1 [ false, %2 ], [ %switch.selectcmp, %4 ]
  ret i1 %.0
}